target datalayout = "e-m:e-p270:32:32-p271:32:32-p272:64:64-i64:64-i128:128-f80:128-n8:16:32:64-S128"
target triple = "x86_64-pc-linux-gnu"

%struct.rb_data_type_struct = type { ptr, %struct.anon.12, ptr, ptr, i64 }
%struct.anon.12 = type { ptr, ptr, ptr, ptr, [1 x ptr] }
%struct.RTypedData = type { %struct.RBasic, ptr, i64, ptr }
%struct.RBasic = type { i64, i64 }
%struct.rb_execarg = type { %union.anon.13, i64, i64, i64, i64, i16, ptr, ptr, i32, i64, i32, i32, i32, i32, i64, i64, i64, i64, i64, i64, i64 }
%union.anon.13 = type { %struct.anon.15 }
%struct.anon.15 = type { i64, i64, i64, i64 }
%struct.anon.14 = type { i64 }

@rb_eArgError = external global i64, align 8
@exec_arg_data_type = internal constant %struct.rb_data_type_struct { ptr @.str.186, %struct.anon.12 { ptr @mark_exec_arg, ptr inttoptr (i64 -1 to ptr), ptr @memsize_exec_arg, ptr null, [1 x ptr] zeroinitializer }, ptr null, ptr null, i64 3 }, align 8
@.str.12 = private unnamed_addr constant [32 x i8] c"exception option is not allowed\00", align 1

; Function Attrs: inlinehint nounwind sspstrong uwtable
define internal zeroext i1 @RTYPEDDATA_EMBEDDED_P(i64 noundef %0) #1 {
  %2 = alloca i64, align 8
  store i64 %0, ptr %2, align 8, !tbaa !35
  %3 = load i64, ptr %2, align 8, !tbaa !35
  %4 = inttoptr i64 %3 to ptr
  %5 = getelementptr inbounds nuw %struct.RTypedData, ptr %4, i32 0, i32 2
  %6 = load i64, ptr %5, align 8, !tbaa !211
  %7 = and i64 %6, 2
  %8 = icmp ne i64 %7, 0
  ret i1 %8
}

; Function Attrs: inlinehint nounwind sspstrong willreturn memory(none) uwtable
define internal i64 @RB_INT2FIX(i64 noundef %0) #4 {
  %2 = alloca i64, align 8
  %3 = alloca i64, align 8
  %4 = alloca i64, align 8
  %5 = alloca i64, align 8
  %6 = alloca i64, align 8
  %7 = alloca i64, align 8
  store i64 %0, ptr %2, align 8, !tbaa !35
  call void @llvm.lifetime.start.p0(i64 8, ptr %3) #27
  %8 = load i64, ptr %2, align 8, !tbaa !35
  store i64 %8, ptr %3, align 8, !tbaa !35
  call void @llvm.lifetime.start.p0(i64 8, ptr %4) #27
  %9 = load i64, ptr %3, align 8, !tbaa !35
  %10 = shl i64 %9, 1
  %11 = add i64 %10, 1
  store i64 %11, ptr %4, align 8, !tbaa !35
  call void @llvm.lifetime.start.p0(i64 8, ptr %5) #27
  %12 = load i64, ptr %4, align 8, !tbaa !35
  store i64 %12, ptr %5, align 8, !tbaa !35
  call void @llvm.lifetime.start.p0(i64 8, ptr %6) #27
  %13 = load i64, ptr %5, align 8, !tbaa !35
  store i64 %13, ptr %6, align 8, !tbaa !35
  call void @llvm.lifetime.start.p0(i64 8, ptr %7) #27
  %14 = load i64, ptr %6, align 8, !tbaa !35
  store i64 %14, ptr %7, align 8, !tbaa !35
  %15 = load i64, ptr %7, align 8, !tbaa !35
  call void @llvm.lifetime.end.p0(i64 8, ptr %7) #27
  call void @llvm.lifetime.end.p0(i64 8, ptr %6) #27
  call void @llvm.lifetime.end.p0(i64 8, ptr %5) #27
  call void @llvm.lifetime.end.p0(i64 8, ptr %4) #27
  call void @llvm.lifetime.end.p0(i64 8, ptr %3) #27
  ret i64 %15
}

; Function Attrs: inlinehint nounwind sspstrong uwtable
define internal ptr @RTYPEDDATA_GET_DATA(i64 noundef %0) #1 {
  %2 = alloca i64, align 8
  %3 = alloca i64, align 8
  store i64 %0, ptr %2, align 8, !tbaa !35
  call void @llvm.lifetime.start.p0(i64 8, ptr %3) #27
  store i64 32, ptr %3, align 8, !tbaa !35
  %4 = load i64, ptr %2, align 8, !tbaa !35
  %5 = call zeroext i1 @RTYPEDDATA_EMBEDDED_P(i64 noundef %4)
  br i1 %5, label %6, label %10

6:                                                ; preds = %1
  %7 = load i64, ptr %2, align 8, !tbaa !35
  %8 = inttoptr i64 %7 to ptr
  %9 = getelementptr i8, ptr %8, i64 32
  br label %15

10:                                               ; preds = %1
  %11 = load i64, ptr %2, align 8, !tbaa !35
  %12 = inttoptr i64 %11 to ptr
  %13 = getelementptr inbounds nuw %struct.RTypedData, ptr %12, i32 0, i32 3
  %14 = load ptr, ptr %13, align 8, !tbaa !42
  br label %15

15:                                               ; preds = %10, %6
  %16 = phi ptr [ %9, %6 ], [ %14, %10 ]
  call void @llvm.lifetime.end.p0(i64 8, ptr %3) #27
  ret ptr %16
}

; Function Attrs: inlinehint nounwind sspstrong uwtable
define internal i64 @rb_int2num_inline(i32 noundef %0) #1 {
  %2 = alloca i64, align 8
  %3 = alloca i32, align 4
  store i32 %0, ptr %3, align 4, !tbaa !34
  %4 = load i32, ptr %3, align 4, !tbaa !34
  %5 = sext i32 %4 to i64
  %6 = icmp slt i64 %5, 4611686018427387904
  br i1 %6, label %7, label %15

7:                                                ; preds = %1
  %8 = load i32, ptr %3, align 4, !tbaa !34
  %9 = sext i32 %8 to i64
  %10 = icmp sge i64 %9, -4611686018427387904
  br i1 %10, label %11, label %15

11:                                               ; preds = %7
  %12 = load i32, ptr %3, align 4, !tbaa !34
  %13 = sext i32 %12 to i64
  %14 = call i64 @RB_INT2FIX(i64 noundef %13) #28
  store i64 %14, ptr %2, align 8
  br label %19

15:                                               ; preds = %7, %1
  %16 = load i32, ptr %3, align 4, !tbaa !34
  %17 = sext i32 %16 to i64
  %18 = call i64 @rb_int2big(i64 noundef %17)
  store i64 %18, ptr %2, align 8
  br label %19

19:                                               ; preds = %15, %11
  %20 = load i64, ptr %2, align 8
  ret i64 %20
}

; Function Attrs: nounwind sspstrong uwtable
define dso_local ptr @rb_execarg_get(i64 noundef %0) #0 {
  %2 = alloca i64, align 8
  %3 = alloca ptr, align 8
  store i64 %0, ptr %2, align 8, !tbaa !35
  call void @llvm.lifetime.start.p0(i64 8, ptr %3) #27
  %4 = load i64, ptr %2, align 8, !tbaa !35
  %5 = call ptr @rb_check_typeddata(i64 noundef %4, ptr noundef @exec_arg_data_type)
  store ptr %5, ptr %3, align 8, !tbaa !68
  %6 = load ptr, ptr %3, align 8, !tbaa !68
  call void @llvm.lifetime.end.p0(i64 8, ptr %3) #27
  ret ptr %6
}

; Function Attrs: nounwind sspstrong uwtable
define dso_local i64 @rb_execarg_new(i32 noundef %0, ptr noundef %1, i32 noundef %2, i32 noundef %3) #0 {
  %5 = alloca i32, align 4
  %6 = alloca ptr, align 8
  %7 = alloca i32, align 4
  %8 = alloca i32, align 4
  %9 = alloca i64, align 8
  %10 = alloca ptr, align 8
  %11 = alloca i64, align 8
  %12 = alloca i64, align 8
  store i32 %0, ptr %5, align 4, !tbaa !34
  store ptr %1, ptr %6, align 8, !tbaa !70
  store i32 %2, ptr %7, align 4, !tbaa !34
  store i32 %3, ptr %8, align 4, !tbaa !34
  call void @llvm.lifetime.start.p0(i64 8, ptr %9) #27
  call void @llvm.lifetime.start.p0(i64 8, ptr %10) #27
  call void @llvm.lifetime.start.p0(i64 8, ptr %11) #27
  %13 = call i64 @rb_data_typed_object_zalloc(i64 noundef 0, i64 noundef 176, ptr noundef @exec_arg_data_type)
  store i64 %13, ptr %11, align 8, !tbaa !35
  %14 = load i64, ptr %11, align 8, !tbaa !35
  %15 = call ptr @RTYPEDDATA_GET_DATA(i64 noundef %14)
  store ptr %15, ptr %10, align 8, !tbaa !68
  %16 = load i64, ptr %11, align 8, !tbaa !35
  store i64 %16, ptr %12, align 8, !tbaa !35
  call void @llvm.lifetime.end.p0(i64 8, ptr %11) #27
  %17 = load i64, ptr %12, align 8, !tbaa !35
  store i64 %17, ptr %9, align 8, !tbaa !35
  %18 = load i32, ptr %5, align 4, !tbaa !34
  %19 = load ptr, ptr %6, align 8, !tbaa !70
  %20 = load i32, ptr %7, align 4, !tbaa !34
  %21 = load i64, ptr %9, align 8, !tbaa !35
  %22 = call i64 @rb_execarg_init(i32 noundef %18, ptr noundef %19, i32 noundef %20, i64 noundef %21)
  %23 = load i32, ptr %8, align 4, !tbaa !34
  %24 = icmp ne i32 %23, 0
  br i1 %24, label %35, label %25

25:                                               ; preds = %4
  %26 = load ptr, ptr %10, align 8, !tbaa !68
  %27 = getelementptr inbounds nuw %struct.rb_execarg, ptr %26, i32 0, i32 5
  %28 = load i16, ptr %27, align 8
  %29 = lshr i16 %28, 13
  %30 = and i16 %29, 1
  %31 = zext i16 %30 to i32
  %32 = icmp ne i32 %31, 0
  br i1 %32, label %33, label %35

33:                                               ; preds = %25
  %34 = load i64, ptr @rb_eArgError, align 8, !tbaa !35
  call void (i64, ptr, ...) @rb_raise(i64 noundef %34, ptr noundef @.str.12) #30
  unreachable

35:                                               ; preds = %25, %4
  %36 = load i64, ptr %9, align 8, !tbaa !35
  call void @llvm.lifetime.end.p0(i64 8, ptr %10) #27
  call void @llvm.lifetime.end.p0(i64 8, ptr %9) #27
  ret i64 %36
}

; Function Attrs: nounwind sspstrong uwtable
define internal i64 @rb_f_spawn(i32 noundef %0, ptr noundef %1, i64 noundef %2) #0 {
  %4 = alloca i32, align 4
  %5 = alloca ptr, align 8
  %6 = alloca i64, align 8
  %7 = alloca i32, align 4
  %8 = alloca [80 x i8], align 16
  %9 = alloca i64, align 8
  %10 = alloca i64, align 8
  %11 = alloca ptr, align 8
  %12 = alloca i32, align 4
  %13 = alloca ptr, align 8
  %14 = alloca ptr, align 8
  store i32 %0, ptr %4, align 4, !tbaa !34
  store ptr %1, ptr %5, align 8, !tbaa !70
  store i64 %2, ptr %6, align 8, !tbaa !35
  call void @llvm.lifetime.start.p0(i64 4, ptr %7) #27
  call void @llvm.lifetime.start.p0(i64 80, ptr %8) #27
  call void @llvm.memset.p0.i64(ptr align 16 %8, i8 0, i64 80, i1 false)
  call void @llvm.lifetime.start.p0(i64 8, ptr %9) #27
  call void @llvm.lifetime.start.p0(i64 8, ptr %10) #27
  call void @llvm.lifetime.start.p0(i64 8, ptr %11) #27
  %15 = load i32, ptr %4, align 4, !tbaa !34
  %16 = load ptr, ptr %5, align 8, !tbaa !70
  %17 = call i64 @rb_execarg_new(i32 noundef %15, ptr noundef %16, i32 noundef 1, i32 noundef 0)
  store i64 %17, ptr %9, align 8, !tbaa !35
  %18 = load i64, ptr %9, align 8, !tbaa !35
  %19 = call ptr @rb_execarg_get(i64 noundef %18)
  store ptr %19, ptr %11, align 8, !tbaa !68
  %20 = load ptr, ptr %11, align 8, !tbaa !68
  %21 = getelementptr inbounds nuw %struct.rb_execarg, ptr %20, i32 0, i32 5
  %22 = load i16, ptr %21, align 8
  %23 = and i16 %22, 1
  %24 = zext i16 %23 to i32
  %25 = icmp ne i32 %24, 0
  br i1 %25, label %26, label %31

26:                                               ; preds = %3
  %27 = load ptr, ptr %11, align 8, !tbaa !68
  %28 = getelementptr inbounds nuw %struct.rb_execarg, ptr %27, i32 0, i32 0
  %29 = getelementptr inbounds nuw %struct.anon.14, ptr %28, i32 0, i32 0
  %30 = load i64, ptr %29, align 8, !tbaa !66
  br label %36

31:                                               ; preds = %3
  %32 = load ptr, ptr %11, align 8, !tbaa !68
  %33 = getelementptr inbounds nuw %struct.rb_execarg, ptr %32, i32 0, i32 0
  %34 = getelementptr inbounds nuw %struct.anon.15, ptr %33, i32 0, i32 0
  %35 = load i64, ptr %34, align 8, !tbaa !66
  br label %36

36:                                               ; preds = %31, %26
  %37 = phi i64 [ %30, %26 ], [ %35, %31 ]
  store i64 %37, ptr %10, align 8, !tbaa !35
  %38 = load i64, ptr %9, align 8, !tbaa !35
  %39 = getelementptr inbounds [80 x i8], ptr %8, i64 0, i64 0
  %40 = call i32 @rb_execarg_spawn(i64 noundef %38, ptr noundef %39, i64 noundef 80)
  store i32 %40, ptr %7, align 4, !tbaa !34
  %41 = load i32, ptr %7, align 4, !tbaa !34
  %42 = icmp eq i32 %41, -1
  br i1 %42, label %43, label %54

43:                                               ; preds = %36
  call void @llvm.lifetime.start.p0(i64 4, ptr %12) #27
  %44 = call ptr @rb_errno_ptr()
  %45 = load i32, ptr %44, align 4, !tbaa !34
  store i32 %45, ptr %12, align 4, !tbaa !34
  %46 = load ptr, ptr %11, align 8, !tbaa !68
  %47 = load i32, ptr %12, align 4, !tbaa !34
  %48 = getelementptr inbounds [80 x i8], ptr %8, i64 0, i64 0
  call void @rb_exec_fail(ptr noundef %46, i32 noundef %47, ptr noundef %48)
  call void @llvm.lifetime.start.p0(i64 8, ptr %13) #27
  store ptr %9, ptr %13, align 8, !tbaa !70
  call void asm sideeffect "", "*m,~{dirflag},~{fpsr},~{flags}"(ptr elementtype(ptr) %13) #27, !srcloc !194
  %49 = load ptr, ptr %13, align 8, !tbaa !70
  store ptr %49, ptr %14, align 8, !tbaa !70
  call void @llvm.lifetime.end.p0(i64 8, ptr %13) #27
  %50 = load ptr, ptr %14, align 8, !tbaa !70
  %51 = load volatile i64, ptr %50, align 8, !tbaa !35
  %52 = load i32, ptr %12, align 4, !tbaa !34
  %53 = load i64, ptr %10, align 8, !tbaa !35
  call void @rb_syserr_fail_str(i32 noundef %52, i64 noundef %53) #30
  unreachable

54:                                               ; preds = %36
  %55 = load i32, ptr %7, align 4, !tbaa !34
  %56 = call i64 @rb_int2num_inline(i32 noundef %55)
  call void @llvm.lifetime.end.p0(i64 8, ptr %11) #27
  call void @llvm.lifetime.end.p0(i64 8, ptr %10) #27
  call void @llvm.lifetime.end.p0(i64 8, ptr %9) #27
  call void @llvm.lifetime.end.p0(i64 80, ptr %8) #27
  call void @llvm.lifetime.end.p0(i64 4, ptr %7) #27
  ret i64 %56
}