; Function Attrs: nounwind sspstrong uwtable
define internal range(i64 1, 0) i64 @rb_f_spawn(i32 noundef %0, ptr noundef readonly captures(none) %1, i64 %2) #1 {
  %4 = alloca [80 x i8], align 16
  %5 = alloca i64, align 8
  %6 = alloca ptr, align 8
  call void @llvm.lifetime.start.p0(i64 80, ptr nonnull %4) #27
  call void @llvm.memset.p0.i64(ptr noundef nonnull align 16 dereferenceable(80) %4, i8 0, i64 80, i1 false)
  call void @llvm.lifetime.start.p0(i64 8, ptr nonnull %5) #27
  %7 = tail call i64 @rb_data_typed_object_zalloc(i64 noundef 0, i64 noundef 176, ptr noundef nonnull @exec_arg_data_type) #27
  %8 = inttoptr i64 %7 to ptr
  %9 = getelementptr inbounds nuw i8, ptr %8, i64 24
  %10 = load i64, ptr %9, align 8, !tbaa !44
  %11 = and i64 %10, 2
  %.not.i.i = icmp eq i64 %11, 0
  %12 = getelementptr i8, ptr %8, i64 32
  br i1 %.not.i.i, label %13, label %RTYPEDDATA_GET_DATA.exit.i

13:                                               ; preds = %3
  %14 = load ptr, ptr %12, align 8, !tbaa !48
  br label %RTYPEDDATA_GET_DATA.exit.i

RTYPEDDATA_GET_DATA.exit.i:                       ; preds = %13, %3
  %15 = phi ptr [ %14, %13 ], [ %12, %3 ]
  tail call fastcc void @rb_execarg_init(i32 noundef %0, ptr noundef readonly %1, i32 noundef 1, i64 noundef %7)
  %16 = getelementptr inbounds nuw i8, ptr %15, i64 64
  %17 = load i16, ptr %16, align 8
  %18 = and i16 %17, 8192
  %.not9.i = icmp eq i16 %18, 0
  br i1 %.not9.i, label %rb_execarg_new.exit, label %19

19:                                               ; preds = %RTYPEDDATA_GET_DATA.exit.i
  %20 = load i64, ptr @rb_eArgError, align 8, !tbaa !43
  tail call void (i64, ptr, ...) @rb_raise(i64 noundef %20, ptr noundef nonnull @.str.12) #29
  unreachable

rb_execarg_new.exit:                              ; preds = %RTYPEDDATA_GET_DATA.exit.i
  store i64 %7, ptr %5, align 8, !tbaa !43
  %21 = tail call ptr @rb_check_typeddata(i64 noundef %7, ptr noundef nonnull @exec_arg_data_type) #27
  %22 = load i64, ptr %21, align 8, !tbaa !67
  %23 = call fastcc i32 @rb_execarg_spawn(i64 noundef %7, ptr noundef nonnull %4, i64 noundef 80)
  %24 = icmp eq i32 %23, -1
  br i1 %24, label %25, label %30

25:                                               ; preds = %rb_execarg_new.exit
  %26 = call ptr @rb_errno_ptr() #27
  %27 = load i32, ptr %26, align 4, !tbaa !60
  call fastcc void @rb_exec_fail(ptr noundef nonnull %21, ptr noundef %4)
  call void @llvm.lifetime.start.p0(i64 8, ptr nonnull %6) #27
  store ptr %5, ptr %6, align 8, !tbaa !75
  call void asm sideeffect "", "*m,~{dirflag},~{fpsr},~{flags}"(ptr nonnull elementtype(ptr) %6) #27, !srcloc !254
  %28 = load ptr, ptr %6, align 8, !tbaa !75
  call void @llvm.lifetime.end.p0(i64 8, ptr nonnull %6) #27
  %29 = load volatile i64, ptr %28, align 8, !tbaa !43
  call void @rb_syserr_fail_str(i32 noundef %27, i64 noundef %22) #29
  unreachable

30:                                               ; preds = %rb_execarg_new.exit
  %31 = sext i32 %23 to i64
  %32 = shl nsw i64 %31, 1
  %33 = or disjoint i64 %32, 1
  call void @llvm.lifetime.end.p0(i64 8, ptr nonnull %5) #27
  call void @llvm.lifetime.end.p0(i64 80, ptr nonnull %4) #27
  ret i64 %33
}